(lp1
(dp2
S'ModulePrevious'
p3
S'MA_41_Prog'
p4
sS'ModuleCurrent'
p5
S'Horizon_Prog'
p6
sS'Version'
p7
I1
sS'Geometry'
p8
S'1914x1008+-8+0'
p9
sS'ProjectName'
p10
g6
sS'ImportTypes'
p11
(lp12
(S'Pmw'
p13
S'import'
p14
tp15
a(S'Tkinter'
p16
S'from'
p17
tp18
asS'EditorWidths'
p19
((lp20
I132
aI132
a(lp21
I132
aI132
a(lp22
I130
aI130
atp23
sS'ID'
p24
S'Rapyd Project'
p25
sS'ParkingLot'
p26
(dp27
S'SelectedWidreq'
p28
NsS'Widreqs'
p29
(lp30
ssa(dp31
S'PreviousForm'
p32
S'-Main-'
p33
sS'OnTab'
p34
I1
sg33
(dp35
S'Cursor'
p36
S'42.22'
p37
sS'Text'
p38
(lp39
S''
aS'#!/usr/bin/python\n#coding=utf8\n\n'
p40
aS'import rpErrorHandler\nfrom Tkinter import *\n'
p41
aV\u000aconnected=0\u000aCOMtimeout=30\u000astop_reading_COM=0\u000atrim=7\u000a\u000adef lamp_wdg_0():\u000a    write_ram_eep('lamp wdg 0')\u000a    write_ram_eep('at thr gas 1')    \u000a    write_ram_eep('at thr alm 5')    \u000a\u000adef read_string_from_serial():\u000a    char = '*'\u000a    string=""\u000a    while (char<>'') and (char <> '\u005cr'):\u000a        char=ser.read()\u000a        string=string+char\u000a        if char=='\u005cr':\u000a            string=string+'\u005cn'     \u000a        if (char=='') and (string<>""):         \u000a            string=string+'\u005cn'\u000a    return string\u000a\u000adef read_and_print(disable_stop):\u000a    string=''\u000a    if stop_reading_COM==1 and disable_stop==0: return ''\u000a    global connected\u000a    if connected==1: \u000a        string=read_string_from_serial()\u000a        if string<>"":\u000a            App._ReceivedText.insert('1.0', string)  \u000a    return string\u000a            \u000adef verify(string,value,type):\u000a    if type=='ataddr':\u000a        if string.upper().find(("0X"+str(hex(numh()*256+numl()))[2:].zfill(4)).upper())==-1: return 0\u000a    if type=='ipaddr':\u000a        if string.find(value)==-1: return 0\u000a    if type=='macaddr':\u000a        if string.find(value[:12]+str(hex(numh())[2:]).upper().zfill(2)+':'+str(hex(numl())[2:]).upper().zfill(2))==-1: return 0\u000a        \u000a    return 1\u000a        \u000a\u000a\u000adef write_and_verify(param,value,type):\u000a    if value=='': return 1 #1-ok, 0-not ok\u000a    global stop_reading_COM\u000a    stop_reading_COM=1        \u000a\u000a    write_eep(param+' '+value)\u000a    string=write_eep(param)      \u000a\u000a    if verify(string,value,type)==0:\u000a        stop_reading_COM=0\u000a        return 0\u000a        \u000a    stop_reading_COM=0\u000a    return 1\u000a    \u000a    \u000adef loopproc():             \u000a     read_and_print(0)\u000a     setup_ip_mac_etc() \u000a     Root.after(COMtimeout,loopproc) \u000a\u000adef write_ram(string):\u000a    read_and_print(1)\u000a    ser.write(string+'\u005cr') \u000a    read_and_print(1)\u000a    return read_and_print(1)\u000a    \u000adef write_eep(string):\u000a    read_and_print(1)\u000a    ser.write('eeprom '+string+'\u005cr')\u000a    read_and_print(1)\u000a    return read_and_print(1)\u000a    \u000adef write_ram_eep(string):      \u000a    write_eep(string)\u000a    write_ram(string)\u000a    \u000a    \u000adef numh():\u000a    return int(math.floor(int(App.serial_number.get())/1000))\u000a   \u000adef numl():\u000a    return int(int(App.serial_number.get()) % 1000)\u000a\u000adef setup_ip_mac_etc():  \u000a\u000a    if App.serial_number.get()=='':return\u000a\u000a    try:\u000a        int(App.serial_number.get())\u000a    except:\u000a        App.serial_number.set('')\u000a        mbox.showerror('\u041e\u0448\u0438\u0431\u043a\u0430','\u041d\u0435\u0434\u043e\u043f\u0443\u0441\u0442\u0438\u043c\u044b\u0439 \u0441\u0438\u043c\u0432\u043e\u043b!')\u000a        return\u000a        \u000a        \u000a\u000a    if App.device.get()=='ma41' or App.device.get()=='ma45' or App.device.get()=='ma48' :    \u000a        App.ataddr.set(hex(numh()*256+numl()))\u000a        App.phyipaddr.set('10.2.'+str(numh())+'.'+str(numl()))\u000a        App.ethipaddr.set('')\u000a        App.phymacaddr.set('00:11:D8:13:'+hex(numh())[2:]+':'+hex(numl())[2:])\u000a        App.ethmacaddr.set('')        \u000a\u000a    if App.device.get()=='lsr4':\u000a        App.ataddr.set(hex(numh()*256+numl()))\u000a        App.phyipaddr.set('10.1.'+str(numh())+'.'+str(numl()))\u000a        App.ethipaddr.set('')\u000a        App.phymacaddr.set('00:11:D8:13:'+hex(numh())[2:]+':'+hex(numl())[2:])\u000a        App.ethmacaddr.set('')        \u000a\u000a    if App.device.get()=='lse4':\u000a        App.ataddr.set(hex(numh()*256+numl()))\u000a        App.phyipaddr.set('10.2.'+str(numh())+'.'+str(numl()))\u000a        App.ethipaddr.set('10.0.'+str(numh())+'.'+str(numl()))\u000a        App.phymacaddr.set('00:11:D8:13:'+hex(numh())[2:]+':'+hex(numl())[2:])\u000a        App.ethmacaddr.set('00:11:D8:14:'+hex(numh())[2:]+':'+hex(numl())[2:]) \u000a\u000a    if App.device.get()=='1m500':            \u000a        App.ataddr.set('')\u000a        App.phyipaddr.set('10.1.'+str(numh())+'.'+str(numl()))\u000a        App.ethipaddr.set('10.0.'+str(numh())+'.'+str(numl()))\u000a        App.phymacaddr.set('00:11:D8:13:'+hex(numh())[2:]+':'+hex(numl())[2:])\u000a        App.ethmacaddr.set('00:11:D8:14:'+hex(numh())[2:]+':'+hex(numl())[2:])          \u000a        \u000a    if App.device.get()=='ma45' : \u000a        App._ma45_treshold_patch.config(state="normal")\u000a    else:   \u000a        App._ma45_treshold_patch.config(state="disabled")\u000a\u000atry:\u000a    #--------------------------------------------------------------------------#\u000a    # User code should go after this comment so it is inside the "try".        #\u000a    #     This allows rpErrorHandler to gain control on an error so it         #\u000a    #     can properly display a Rapyd-aware error message.                    #\u000a    #--------------------------------------------------------------------------#\u000a\u000a    #Adjust sys.path so we can find other modules of this project\u000a   \u000a   \u000a\u000a    \u000a    \u000a    \u000a    if '.' not in sys.path:\u000a        sys.path.append('.')\u000a    #Put lines to import other modules of this project here\u000a \u000a    import sys\u000a    \u000a    import serial\u000a    import msvcrt\u000a    import time\u000a    import math\u000a    import tkMessageBox as mbox\u000a \u000a \u000a    \u000a    if __name__ == '__main__':\u000a
p42
aS"        Root = Tk()\n        import Tkinter\n        Tkinter.CallWrapper = rpErrorHandler.CallWrapper\n        del Tkinter\n        App = Horizon_Prog(Root)\n        App.pack(expand='yes',fill='both')\n"
p43
aS"        Root.geometry('1000x860+10+10')\n        Root.title('Horizon programming')\n\n        \n        Root.after(COMtimeout,loopproc)\n        \n        def left_key(event): \n           if App.ArrowKeysOn.get()==1:\n               if connected==1:\n                   App._on__left_command()\n            \n        def right_key(event):\n           if App.ArrowKeysOn.get()==1:\n                if connected==1:\n                   App._on__right_command()            \n\n        def up_key(event):\n                if connected==1:\n                   App._on__prog_and_increment_command()                \n        \n        Root.bind('<Left>', left_key)\n        Root.bind('<Right>', right_key)\n        Root.bind('<Up>', up_key)\n\n        \n        Root.mainloop()\n    #--------------------------------------------------------------------------#\n    # User code should go above this comment.                                  #\n    #--------------------------------------------------------------------------#\nexcept:\n    rpErrorHandler.RunError()"
p44
asg7
I0
sS'Sha'
p45
I15435391
ssS'Forms'
p46
(lp47
(dp48
S'Requested'
p49
g38
sS'Name'
p50
S'Horizon_Prog'
p51
sg28
S'_MA45'
p52
sS'Type'
p53
S'Tkinter.Frame'
p54
sS'Lines'
p55
(lp56
(lp57
I9854
aI4994
aI1
aa(lp58
I2520
aI4994
aI1
aa(lp59
I1260
aI943
aI0
aa(lp60
I1260
aI1282
aI0
aa(lp61
I1260
aI9323
aI0
aa(lp62
I1260
aI8464
aI0
aa(lp63
I1260
aI7836
aI0
aa(lp64
I1260
aI7316
aI0
aa(lp65
I1260
aI3325
aI0
aa(lp66
I1260
aI2394
aI0
aa(lp67
I1260
aI1584
aI0
aa(lp68
I1260
aI1971
aI0
aa(lp69
I475
aI8150
aI1
aa(lp70
I1284
aI8150
aI1
aa(lp71
I1582
aI8888
aI1
aa(lp72
I6184
aI5502
aI0
aa(lp73
I6184
aI6505
aI0
aa(lp74
I6184
aI8561
aI0
aa(lp75
I6184
aI9069
aI0
aa(lp76
I6184
aI6892
aI0
aa(lp77
I6184
aI7388
aI0
aa(lp78
I6184
aI9335
aI0
aa(lp79
I6184
aI5985
aI0
aa(lp80
I6184
aI4135
aI0
aa(lp81
I6184
aI1729
aI0
aa(lp82
I4425
aI2926
aI1
aasg38
(dp83
g36
S'437.31'
p84
sg38
(lp85
S'#------------------------------------------------------------------------------#\n#                                                                              #\n#                                 Horizon_Prog                                 #\n#                                                                              #\n#------------------------------------------------------------------------------#\nclass Horizon_Prog(Frame):\n    def __init__(self,Master=None,*pos,**kw):\n'
p86
aS'        #\n        #Your code here\n        #    \n'
p87
aV\u000a        apply(Frame.__init__,(self,Master),kw)\u000a        self.device = StringVar()\u000a        self.ArrowKeysOn = IntVar()\u000a        self.ataddr = StringVar()\u000a        self.entry_at_addr = StringVar()\u000a        self.entry_at_addr_exe = StringVar()\u000a        self.entry_at_addr_rt = StringVar()\u000a        self.dev_mac = StringVar()\u000a        self.ethipaddr = StringVar()\u000a        self.ethmacaddr = StringVar()\u000a        self.ifbw = IntVar()\u000a        self.entry_ipaddr = StringVar()\u000a        self.ma45_treshold_patch = IntVar()\u000a        self.phyipaddr = StringVar()\u000a        self.phymacaddr = StringVar()\u000a        self.serial_number = StringVar()\u000a        self.text_to_send = StringVar()\u000a        self.text_to_send2 = StringVar()\u000a        self._Frame2 = Frame(self)\u000a        self._Frame2.pack(fill='y',side='left')\u000a        self._Frame4 = Frame(self,background='#dbdbdb')\u000a        self._Frame4.pack(fill='y',side='left')\u000a        self._Frame3 = Frame(self)\u000a        self._Frame3.pack(side='left')\u000a        self._Frame27 = Frame(self._Frame2)\u000a        self._Frame27.pack(side='top')\u000a        self._Label1 = Label(self._Frame27,text='\u0412\u044b\u0431\u0435\u0440\u0435\u0442\u0435 COM-\u043f\u043e\u0440\u0442')\u000a        self._Label1.pack(side='top')\u000a        self._ComPortsList = Listbox(self._Frame27,selectmode='single')\u000a        self._ComPortsList.pack(side='top')\u000a        self._COM_port_connect = Button(self._Frame27\u000a            ,command=self._on__COM_port_connect_command,text='\u041e\u0442\u043a\u0440\u044b\u0442\u044c COM-\u043f\u043e\u0440\u0442')\u000a        self._COM_port_connect.pack(side='bottom')\u000a        self._Frame26 = Frame(self._Frame2)\u000a        self._Frame26.pack(fill='x',side='top')\u000a        self._Label3 = Label(self._Frame26,justify='left'\u000a            ,text='\u0412\u044b\u0431\u0435\u0440\u0435\u0442\u0435 \u0443\u0441\u0442\u0440\u043e\u0439\u0441\u0442\u0432\u043e:')\u000a        self._Label3.pack(anchor='w',side='left')\u000a        self._Frame7 = Frame(self._Frame2)\u000a        self._Frame7.pack(fill='x',side='top')\u000a        self._MA41 = Radiobutton(self._Frame7,command=self._set_serial\u000a            ,justify='left',text='\u041c\u043e\u0434\u0443\u043b\u044c \u041c\u0410-41',value='ma41'\u000a            ,variable=self.device)\u000a        self._MA41.pack(anchor='w',side='top')\u000a        self._Frame32 = Frame(self._Frame2)\u000a        self._Frame32.pack(fill='x',side='top')\u000a        self._MA45 = Radiobutton(self._Frame32,command=self._set_serial\u000a            ,justify='left',text='\u041c\u043e\u0434\u0443\u043b\u044c \u041c\u0410-45',value='ma45'\u000a            ,variable=self.device)\u000a        self._MA45.pack(side='left')\u000a        self._ma45_treshold_patch = Checkbutton(self._Frame32,justify='left'\u000a            ,state='disabled',text='MA-45 patch (recomended)'\u000a            ,variable=self.ma45_treshold_patch)\u000a        self._ma45_treshold_patch.pack(side='left')\u000a        self._Frame11 = Frame(self._Frame2)\u000a        self._Frame11.pack(fill='x',side='top')\u000a        self._MA48 = Radiobutton(self._Frame11,command=self._set_serial\u000a            ,justify='left',text='\u041c\u043e\u0434\u0443\u043b\u044c \u041c\u0410-48',value='ma48'\u000a            ,variable=self.device)\u000a        self._MA48.pack(side='left')\u000a        self._Frame12 = Frame(self._Frame2)\u000a        self._Frame12.pack(fill='x',side='top')\u000a        self._LSR4 = Radiobutton(self._Frame12,command=self._set_serial\u000a            ,justify='left',text='\u0421\u0447\u0438\u0442\u044b\u0432\u0430\u0442\u0435\u043b\u044c \u041b\u0421-\u04204',value='lsr4'\u000a            ,variable=self.device)\u000a        self._LSR4.pack(anchor='w',side='top')\u000a        self._LSE4 = Radiobutton(self._Frame12,command=self._set_serial\u000a            ,justify='left',text='\u0421\u0447\u0438\u0442\u044b\u0432\u0430\u0442\u0435\u043b\u044c \u041b\u0421-\u04154',value='lse4'\u000a            ,variable=self.device)\u000a        self._LSE4.pack(anchor='w',side='top')\u000a        self._1M500 = Radiobutton(self._Frame12,command=self._set_serial\u000a            ,justify='left',text='\u041a\u0430\u0441\u0441\u0435\u0442\u0430 1-M-500',value='1m500'\u000a            ,variable=self.device)\u000a        self._1M500.pack(anchor='w',side='top')\u000a        self._Frame6 = Frame(self._Frame2)\u000a        self._Frame6.pack(side='top')\u000a        self._Label2 = Label(self._Frame6,text='\u0421\u0435\u0440\u0438\u0439\u043d\u044b\u0439 \u043d\u043e\u043c\u0435\u0440:')\u000a        self._Label2.pack(side='top')\u000a        self._serialnumber = Entry(self._Frame6,textvariable=self.serial_number)\u000a        self._serialnumber.pack(side='top')\u000a        self._prog_and_increment = Button(self._Frame6\u000a            ,command=self._on__prog_and_increment_command,state='disabled'\u000a            ,text='Write to EEPROM ataddr, ipaddr, macaddr, ifbw, wdg and increment serial number (up key)')\u000a        self._prog_and_increment.pack(side='top')\u000a        self._GasThreshold = Button(self._Frame6\u000a            ,command=self._on__GasThreshold_command,state='disabled'\u000a            ,text='Write Gas Threshold')\u000a        self._GasThreshold.pack(side='top')\u000a        self._Label9 = Label(self._Frame6,text='at addr')\u000a        self._Label9.pack(side='top')\u000a        self._ataddr = Entry(self._Frame6,state='disabled'\u000a            ,textvariable=self.ataddr)\u000a        self._ataddr.pack(side='top')\u000a        self._Label5 = Label(self._Frame6,text='phy ipaddr:')\u000a        self._Label5.pack(side='top')\u000a        self._phyipaddr = Entry(self._Frame6,state='disabled'\u000a            ,textvariable=self.phyipaddr)\u000a        self._phyipaddr.pack(side='top')\u000a        self._Label6 = Label(self._Frame6,text='eth ipaddr:')\u000a        self._Label6.pack(side='top')\u000a        self._ethipaddr = Entry(self._Frame6,state='disabled'\u000a            ,textvariable=self.ethipaddr)\u000a        self._ethipaddr.pack(side='top')\u000a        self._Label7 = Label(self._Frame6,text='phy macaddr:')\u000a        self._Label7.pack(side='top')\u000a        self._phymacaddr = Entry(self._Frame6,state='disabled'\u000a            ,textvariable=self.phymacaddr)\u000a        self._phymacaddr.pack(side='top')\u000a        self._ethmacaddr = Entry(self._Frame6,state='disabled'\u000a            ,textvariable=self.ethmacaddr)\u000a        self._ethmacaddr.pack(side='bottom')\u000a        self._Label8 = Label(self._Frame6,text='eth macaddr:')\u000a        self._Label8.pack(side='bottom')\u000a        self._Frame1 = Frame(self._Frame2)\u000a        self._Frame1.pack(side='top')\u000a        self._Label10 = Label(self._Frame1,text='at frequency trim:')\u000a        self._Label10.pack(side='top')\u000a        self._Frame10 = Frame(self._Frame2)\u000a        self._Frame10.pack(side='top')\u000a        self._Frame23 = Frame(self._Frame2,background='#c0c0c0',borderwidth='10')\u000a        self._Frame23.pack(side='top')\u000a        self._Frame22 = Frame(self._Frame2)\u000a        self._Frame22.pack(side='top')\u000a        self._btn_lamp_wdg_0 = Button(self._Frame22\u000a            ,command=self._on__btn_adf_wdg_0_command,state='disabled'\u000a            ,text='lamp wdg 0')\u000a        self._btn_lamp_wdg_0.pack(side='left')\u000a        self._Frame29 = Frame(self._Frame4)\u000a        self._Frame29.pack(side='top')\u000a        self._Label4 = Label(self._Frame29,text='\u0412\u0432\u0435\u0434\u0438\u0442\u0435 \u043a\u043e\u043c\u0430\u043d\u0434\u0443 \u0434\u043b\u044f \u043e\u0442\u043f\u0440\u0430\u0432\u043a\u0438:')\u000a        self._Label4.pack(side='bottom')\u000a        self._Frame19 = Frame(self._Frame4)\u000a        self._Frame19.pack(side='top')\u000a        self._Frame14 = Frame(self._Frame4)\u000a        self._Frame14.pack(side='top')\u000a        self._label_Rcvd_Text = Label(self._Frame14\u000a            ,text='\u041f\u0440\u0438\u043d\u044f\u0442\u043e \u043e\u0442 \u0443\u0441\u0442\u0440\u043e\u0439\u0441\u0442\u0432\u0430:')\u000a        self._label_Rcvd_Text.pack(side='top')\u000a        self._ReceivedText = Text(self._Frame14\u000a            ,font=('@Arial Unicode MS', 10, ''),height='35')\u000a        self._ReceivedText.pack(side='top')\u000a        self._Frame9 = Frame(self._Frame4)\u000a        self._Frame9.pack(fill='x',side='top')\u000a        self._btn_dbg0 = Button(self._Frame9,command=self._on__btn_dbg0_command\u000a            ,state='disabled',text='dbg 0')\u000a        self._btn_dbg0.pack(anchor='w',side='left')\u000a        self._btn_dbg1 = Button(self._Frame9,command=self._on__btn_dbg1_command\u000a            ,state='disabled',text='dbg 1')\u000a        self._btn_dbg1.pack(anchor='w',side='left')\u000a        self._Frame28 = Frame(self._Frame4)\u000a        self._Frame28.pack(fill='x',side='top')\u000a        self._btn_ping = Button(self._Frame28,command=self._on__btn_ping_command\u000a            ,state='disabled',text='ping')\u000a        self._btn_ping.pack(side='left')\u000a        self._ipaddr = Entry(self._Frame28,textvariable=self.entry_ipaddr)\u000a        self._ipaddr.pack(side='left')\u000a        self._Frame15 = Frame(self._Frame4)\u000a        self._Frame15.pack(fill='x',side='top')\u000a        self._btn_phyipaddr = Button(self._Frame15\u000a            ,command=self._on__btn_phyipaddr_command,state='disabled'\u000a            ,text='phy ipaddr')\u000a        self._btn_phyipaddr.pack(anchor='w',side='left')\u000a        self._btn_ataddr = Button(self._Frame15\u000a            ,command=self._on__btn_ataddr_command,state='disabled'\u000a            ,text='at addr')\u000a        self._btn_ataddr.pack(side='left')\u000a        self._Frame18 = Frame(self._Frame4)\u000a        self._Frame18.pack(fill='x',side='top')\u000a        self._btn_adf_tst = Button(self._Frame18\u000a            ,command=self._on__btn_adf_tst_command,state='disabled'\u000a            ,text='adf tst')\u000a        self._btn_adf_tst.pack(anchor='w',side='left')\u000a        self._btn_adf_tst_50 = Button(self._Frame18\u000a            ,command=self._on__btn_adf_tst_50_command,state='disabled'\u000a            ,text='adf tst 50')\u000a        self._btn_adf_tst_50.pack(anchor='w',side='left')\u000a        self._Frame16 = Frame(self._Frame4)\u000a        self._Frame16.pack(fill='x',side='top')\u000a        self._btn_at_dst_rt = Button(self._Frame16\u000a            ,command=self._on__btn_at_dst_rt_command,state='disabled'\u000a            ,text='at dst 0xXXXX + rt')\u000a        self._btn_at_dst_rt.pack(anchor='w',side='left')\u000a        self._entry_at_addr = Entry(self._Frame16\u000a            ,textvariable=self.entry_at_addr)\u000a        self._entry_at_addr.pack(side='left')\u000a        self._Frame17 = Frame(self._Frame4)\u000a        self._Frame17.pack(fill='x',side='top')\u000a        self._Label11 = Label(self._Frame17,text='\u041b\u0421-\u04204:')\u000a        self._Label11.pack(side='left')\u000a        self._entry_at_addr_exe = Entry(self._Frame17\u000a            ,textvariable=self.entry_at_addr_exe)\u000a        self._entry_at_addr_exe.pack(side='left')\u000a        self._btn_exe_at_dst_rt = Button(self._Frame17\u000a            ,command=self._on__btn_exe_at_dst_rt_command,state='disabled'\u000a            ,text='exe 0xXXXX at dst 0xXXXX + rt')\u000a        self._btn_exe_at_dst_rt.pack(side='left')\u000a        self._Label12 = Label(self._Frame17,text='\u041c\u0410:')\u000a        self._Label12.pack(side='left')\u000a        self._entry_at_addr_rt = Entry(self._Frame17\u000a            ,textvariable=self.entry_at_addr_rt)\u000a        self._entry_at_addr_rt.pack(side='left')\u000a        self._Frame20 = Frame(self._Frame4)\u000a        self._Frame20.pack(fill='x',side='top')\u000a        self._Label13 = Label(self._Frame20,text='\u0414\u043b\u044f \u043a\u0430\u0441\u0441\u0435\u0442\u044b 1-\u041c-5:')\u000a        self._Label13.pack(side='left')\u000a        self._Frame21 = Frame(self._Frame4)\u000a        self._Frame21.pack(fill='x',side='top')\u000a        self._btn_root = Button(self._Frame21,command=self._on__btn_root_command\u000a            ,state='disabled',text='root')\u000a        self._btn_root.pack(anchor='w',side='left')\u000a        self._btn_talnakh = Button(self._Frame21\u000a            ,command=self._on__btn_tanakh_command,state='disabled'\u000a            ,text='talnakh')\u000a        self._btn_talnakh.pack(side='left')\u000a        self._btn_enter = Button(self._Frame21\u000a            ,command=self._on__btn_enter_command,state='disabled'\u000a            ,text='Enter key')\u000a        self._btn_enter.pack(side='left')\u000a        self._btn_dev_mac = Button(self._Frame21\u000a            ,command=self._on__btn_dev_mac_command,state='disabled'\u000a            ,text='dev mac')\u000a        self._btn_dev_mac.pack(side='left')\u000a        self._entry_dev_mac = Entry(self._Frame21,textvariable=self.dev_mac)\u000a        self._entry_dev_mac.pack(side='left')\u000a        self._btn_dev_req = Button(self._Frame21\u000a            ,command=self._on__btn_dev_req_command,state='disabled'\u000a            ,text='dev req')\u000a        self._btn_dev_req.pack(side='left')\u000a        self._Frame5 = Frame(self._Frame10)\u000a        self._Frame5.pack(side='left')\u000a        self._left = Button(self._Frame5,command=self._on__left_command\u000a            ,state='disabled',text='<-------(left key)--at trim left')\u000a        self._left.pack(side='right')\u000a        self._Frame13 = Frame(self._Frame10)\u000a        self._Frame13.pack(side='left')\u000a        self._right = Button(self._Frame13,command=self._on__right_command\u000a            ,state='disabled',text='at trim right--(right key)------->')\u000a        self._right.pack(side='left')\u000a        self._Frame8 = Frame(self._Frame10)\u000a        self._Frame8.pack(side='left')\u000a        self._ArrowKeysOn = Checkbutton(self._Frame8\u000a            ,text='Arrow keys control on',variable=self.ArrowKeysOn)\u000a        self._ArrowKeysOn.pack(side='left')\u000a        self._Frame25 = Frame(self._Frame23)\u000a        self._Frame25.pack(side='left')\u000a        self._ifbw0 = Radiobutton(self._Frame25,text='ifbw 0 (\u0434\u043b\u044f ADF7021)'\u000a            ,value=0,variable=self.ifbw)\u000a        self._ifbw0.pack(side='top')\u000a        self._ifbw1 = Radiobutton(self._Frame25,text='ifbw 1 (\u0434\u043b\u044f ADF7021-N)'\u000a            ,value=1,variable=self.ifbw)\u000a        self._ifbw1.pack(side='top')\u000a        self._Frame24 = Frame(self._Frame23)\u000a        self._Frame24.pack(side='left')\u000a        self._set_ifbw = Button(self._Frame24,command=self._on__set_ifbw_command\u000a            ,state='disabled',text='Set IFBW')\u000a        self._set_ifbw.pack(side='left')\u000a        self._Frame31 = Frame(self._Frame19)\u000a        self._Frame31.pack(expand='yes',fill='x',side='left')\u000a        self._text_to_send = Entry(self._Frame31,textvariable=self.text_to_send)\u000a        self._text_to_send.pack(side='top')\u000a        self._send = Button(self._Frame31,command=self._on__send_command\u000a            ,state='disabled',text='\u041e\u0442\u043f\u0440\u0430\u0432\u0438\u0442\u044c \u043d\u0430 \u0443\u0441\u0442\u0440\u043e\u0439\u0441\u0442\u0432\u043e \u043a\u043e\u043c\u0430\u043d\u0434\u0443')\u000a        self._send.pack(fill='x',side='top')\u000a        self._Frame30 = Frame(self._Frame19)\u000a        self._Frame30.pack(expand='yes',fill='x',side='left')\u000a        self._text_to_send2 = Entry(self._Frame30\u000a            ,textvariable=self.text_to_send2)\u000a        self._text_to_send2.pack(side='top')\u000a        self._send2 = Button(self._Frame30,command=self._on__send2_command\u000a            ,state='disabled',text='\u041e\u0442\u043f\u0440\u0430\u0432\u0438\u0442\u044c \u043d\u0430 \u0443\u0441\u0442\u0440\u043e\u0439\u0441\u0442\u0432\u043e \u043a\u043e\u043c\u0430\u043d\u0434\u0443')\u000a        self._send2.pack(side='top')\u000a
p88
aV        #\u000a        #Your code here\u000a        #\u000a        \u000a        found = False\u000a \u000a        for i in range(5,64) :\u000a            try :\u000a                port = "COM"+str(i)\u000a                ser = serial.Serial(port)\u000a                ser.close()\u000a                self._ComPortsList.insert(0, port)\u000a                found = True\u000a            except serial.serialutil.SerialException :\u000a                pass\u000a \u000a        if not found :\u000a            mbox.showerror("\u041f\u043e\u0441\u043b\u0435\u0434\u043e\u0432\u0430\u0442\u0435\u043b\u044c\u043d\u044b\u0445 \u043f\u043e\u0440\u0442\u043e\u0432 \u043d\u0435 \u043e\u0431\u043d\u0430\u0440\u0443\u0436\u0435\u043d\u043e")\u000a        \u000a\u000a            \u000a\u000a        \u000a        self.device.set('ma41')\u000a        self.serial_number.set('16001')\u000a        self.ifbw.set(0)\u000a        \u000a\u000a        self.text_to_send.set(str("exe 0x0003 sys info"))\u000a        self.text_to_send2.set(str("exe 7 exe 2 sys info"))\u000a        \u000a        self.entry_ipaddr.set('10.2.1.20')\u000a        self.entry_at_addr.set('0x0007')\u000a        self.entry_at_addr_exe.set('0x202')\u000a        self.entry_at_addr_rt.set('0x104d')\u000a        self.dev_mac.set('12345')\u000a        self.ma45_treshold_patch.set(1)\u000a        \u000a
p89
aS'    #\n    #Start of event handler methods\n    #\n'
p90
aS'\n'
aS'\n    def _on__COM_port_connect_command(self'
p91
aV,Event=None):\u000a        global connected\u000a        try:\u000a            global ser                      \u000a            ser = serial.Serial(self._ComPortsList.get(self._ComPortsList.curselection()),timeout=0.02)\u000a            ser.baudrate = 115200\u000a            connected=1\u000a            self._COM_port_connect.config(state='disabled')\u000a            self._prog_and_increment.config(state="normal")\u000a            self._send.config(state="normal")\u000a            self._send2.config(state="normal")\u000a            self._set_ifbw.config(state="normal")\u000a            self._prog_and_increment.config(state="normal")\u000a            self._left.config(state="normal")\u000a            self._right.config(state="normal")\u000a            self._btn_ping.config(state="normal")\u000a            self._btn_phyipaddr.config(state="normal")\u000a            self._btn_ataddr.config(state="normal")\u000a            self._btn_adf_tst.config(state="normal")            \u000a            self._btn_adf_tst_50.config(state="normal")            \u000a            self._btn_dbg0.config(state="normal")\u000a            self._btn_dbg1.config(state="normal")\u000a            self._btn_at_dst_rt.config(state="normal")\u000a            self._btn_exe_at_dst_rt.config(state="normal")\u000a            self._btn_root.config(state="normal")\u000a            self._btn_talnakh.config(state="normal")\u000a            self._btn_enter.config(state="normal")           \u000a            self._btn_dev_mac.config(state="normal")\u000a            self._btn_dev_req.config(state="normal")            \u000a            self._btn_lamp_wdg_0.config(state="normal")\u000a            self._GasThreshold.config(state="normal")\u000a        except:            \u000a            connected=0\u000a            mbox.showerror("\u041e\u0448\u0438\u0431\u043a\u0430", "\u041d\u0435\u0432\u043e\u0437\u043c\u043e\u0436\u043d\u043e \u043e\u0442\u043a\u0440\u044b\u0442\u044c COM-\u043f\u043e\u0440\u0442")  \u000a            \u000a        \u000a\u000a\u000a
p92
aS'\n    def _on__GasThreshold_command(self'
p93
aV,Event=None):\u000a        ok=1\u000a\u000a        if write_and_verify('at thr alm','0x05','ipaddr')==0:            \u000a           ok=0\u000a           mbox.showerror("\u041e\u0448\u0438\u0431\u043a\u0430","\u041e\u0448\u0438\u0431\u043a\u0430 \u0437\u0430\u043f\u0438\u0441\u0438 at thr alm")\u000a        \u000a        if write_and_verify('at thr gas','0x01','ipaddr')==0:            \u000a           ok=0\u000a           mbox.showerror("\u041e\u0448\u0438\u0431\u043a\u0430","\u041e\u0448\u0438\u0431\u043a\u0430 \u0437\u0430\u043f\u0438\u0441\u0438 at thr gas")\u000a        \u000a        \u000a        pass\u000a
p94
aS'\n    def _on__btn_adf_tst_50_command(self'
p95
aS",Event=None):\n        write_ram('adf tst 50')\n"
p96
aS'\n    def _on__btn_adf_tst_command(self'
p97
aS",Event=None):\n        write_ram('adf tst')\n"
p98
aS'\n    def _on__btn_adf_wdg_0_command(self'
p99
aS',Event=None):\n        lamp_wdg_0()\n'
p100
aS'\n    def _on__btn_at_dst_rt_command(self'
p101
aS",Event=None):\n        write_ram('at dst '+str(self.entry_at_addr.get()))\n        write_ram('rt')\n"
p102
aS'\n    def _on__btn_ataddr_command(self'
p103
aS",Event=None):\n        write_ram('at addr')\n"
p104
aS'\n    def _on__btn_dbg0_command(self'
p105
aS",Event=None):\n        write_ram('dbg 0')\n"
p106
aS'\n    def _on__btn_dbg1_command(self'
p107
aS",Event=None):\n        write_ram('dbg 1')\n"
p108
aS'\n    def _on__btn_dev_mac_command(self'
p109
aS",Event=None):\n        write_ram('dev mac '+str(self.dev_mac.get()))\n"
p110
aS'\n    def _on__btn_dev_req_command(self'
p111
aS",Event=None):\n        write_ram('dev req')\n"
p112
aS'\n    def _on__btn_enter_command(self'
p113
aS",Event=None):\n        write_ram('')\n"
p114
aS'\n    def _on__btn_exe_at_dst_rt_command(self'
p115
aS",Event=None):\n        write_ram('exe '+self.entry_at_addr_exe.get()+' at dst '+self.entry_at_addr_rt.get())\n        write_ram('exe '+self.entry_at_addr_exe.get()+' rt')\n"
p116
aS'\n    def _on__btn_phyipaddr_command(self'
p117
aS",Event=None):\n        write_ram('phy ipaddr')\n"
p118
aS'\n    def _on__btn_ping_command(self'
p119
aS",Event=None):\n        write_ram('ping '+str(self.entry_ipaddr.get()))\n"
p120
aS'\n    def _on__btn_root_command(self'
p121
aS",Event=None):\n        write_ram('root')\n"
p122
aS'\n    def _on__btn_tanakh_command(self'
p123
aS",Event=None):\n        write_ram('talnakh')\n"
p124
aS'\n    def _on__left_command(self'
p125
aS',Event=None):\n        global trim\n        if trim <15:\n            trim+=1\n        write_ram_eep("at trim "+str(trim)+\'\\r\')\n'
p126
aS'\n    def _on__prog_and_increment_command(self'
p127
aV,Event=None):\u000a        setup_ip_mac_etc()\u000a        ok=1\u000a\u000a        if self.device.get()=='ma48': \u000a            write_eep('init')  \u000a\u000a        if write_and_verify('at addr',self.ataddr.get(),'ataddr')==0:            \u000a           ok=0\u000a           mbox.showerror("\u041e\u0448\u0438\u0431\u043a\u0430","\u041e\u0448\u0438\u0431\u043a\u0430 \u0437\u0430\u043f\u0438\u0441\u0438 at addr")\u000a\u000a        if write_and_verify('phy ipaddr',self.phyipaddr.get(),'ipaddr')==0:            \u000a           ok=0\u000a           mbox.showerror("\u041e\u0448\u0438\u0431\u043a\u0430","\u041e\u0448\u0438\u0431\u043a\u0430 \u0437\u0430\u043f\u0438\u0441\u0438 phy ipaddr")\u000a           \u000a        if write_and_verify('eth ipaddr',self.ethipaddr.get(),'ipaddr')==0:            \u000a           ok=0\u000a           mbox.showerror("\u041e\u0448\u0438\u0431\u043a\u0430","\u041e\u0448\u0438\u0431\u043a\u0430 \u0437\u0430\u043f\u0438\u0441\u0438 eth ipaddr")   \u000a           \u000a        if write_and_verify('phy macaddr',self.phymacaddr.get(),'macaddr')==0:            \u000a           ok=0\u000a           mbox.showerror("\u041e\u0448\u0438\u0431\u043a\u0430","\u041e\u0448\u0438\u0431\u043a\u0430 \u0437\u0430\u043f\u0438\u0441\u0438 phy macaddr")                 \u000a           \u000a        if write_and_verify('eth macaddr',self.ethmacaddr.get(),'macaddr')==0:            \u000a           ok=0\u000a           mbox.showerror("\u041e\u0448\u0438\u0431\u043a\u0430","\u041e\u0448\u0438\u0431\u043a\u0430 \u0437\u0430\u043f\u0438\u0441\u0438 eth macaddr")\u000a           \u000a        if self.device.get()=='ma41':\u000a            self._on__set_ifbw_command()\u000a            lamp_wdg_0()\u000a        \u000a        if self.device.get()=='ma45' and self.ma45_treshold_patch.get()==1: \u000a            write_eep('at thr gas 0x01')   \u000a            write_eep('iwdg rst 3600')               \u000a\u000a        if self.device.get()=='ma48': \u000a            write_eep('at thr gas 1')   \u000a            write_eep('iwdg rst 3600') \u000a            write_eep('at wdg 1')    \u000a            write_eep('dbg 0')    \u000a        \u000a        if ok==1:\u000a            self.serial_number.set(str(int(self.serial_number.get())+1))\u000a            if int(self.serial_number.get())%1000>=255:\u000a               self.serial_number.set(int(self.serial_number.get())+746)\u000a        \u000a        \u000a
p128
aS'\n    def _on__right_command(self'
p129
aS',Event=None):\n        global trim\n        if trim >0:\n            trim-=1\n        write_ram_eep("at trim "+str(trim)+\'\\r\')\n'
p130
aS'\n    def _on__send2_command(self'
p131
aS",Event=None):\n        ser.write(self._text_to_send2.get()+'\\r')\n"
p132
aS'\n    def _on__send_command(self'
p133
aS",Event=None):\n        ser.write(self._text_to_send.get()+'\\r')\n        \n\n"
p134
aS'\n    def _on__set_ifbw_command(self'
p135
aS",Event=None):        \n        write_ram_eep('adf ifbw '+str(self.ifbw.get()))\n        \n\n"
p136
aS'\n    def _set_serial(self'
p137
aS",Event=None):\n        if self.device.get()=='ma41':\n            self.serial_number.set('16001')\n            \n        if self.device.get()=='ma45':\n            self.serial_number.set('16001')\n            \n        if self.device.get()=='ma48':\n            self.serial_number.set('16001')                     \n\n        if self.device.get()=='lsr4':\n            self.serial_number.set('1008')\n\n        if self.device.get()=='lse4':\n            self.serial_number.set('1008')\n      \n        if self.device.get()=='1m500':\n            self.serial_number.set('1008')\n            \n        setup_ip_mac_etc()\n\n\n      \n"
p138
aS'    #\n    #Start of non-Rapyd user code\n    #\n'
p139
aS''
asg7
I0
sg45
I9406335
ssg29
(lp140
(dp141
S'ModuleName'
p142
S'Tkinter'
p143
sg50
g51
sS'WidgetName'
p144
S'Frame'
p145
sS'PackOptions'
p146
(lp147
sg24
(I0
tp148
sS'XY'
p149
(I0
I0
tp150
sS'Bindings'
p151
(lp152
sS'Options'
p153
(lp154
sa(dp155
g142
S'Tkinter'
p156
sg50
S'_1M500'
p157
sg144
S'Radiobutton'
p158
sg146
(lp159
(dp160
g50
S'anchor'
p161
sS'Value'
p162
S'w'
sasg24
Nsg149
(lp163
I1820
aI3071
asg151
(lp164
sg153
(lp165
(dp166
g50
S'text'
p167
sg162
V\u041a\u0430\u0441\u0441\u0435\u0442\u0430 1-M-500
p168
sS'Extra'
p169
Nsa(dp170
g50
S'variable'
p171
sg162
S'device'
p172
sg169
S'is.as'
p173
sa(dp174
g50
S'value'
p175
sg162
S'1m500'
p176
sg169
Nsa(dp177
g50
S'command'
p178
sg162
S'_set_serial'
p179
sg169
I1
sa(dp180
g50
S'justify'
p181
sg162
S'left'
p182
sg169
Nsasa(dp183
g142
S'Tkinter'
p184
sg50
S'_ArrowKeysOn'
p185
sg144
S'Checkbutton'
p186
sg146
(lp187
sg24
Nsg149
(lp188
I1552
aI8162
asg151
(lp189
sg153
(lp190
(dp191
g50
S'text'
p192
sg162
S'Arrow keys control on'
p193
sg169
Nsa(dp194
g50
S'variable'
p195
sg162
S'ArrowKeysOn'
p196
sg169
S'sif.ai'
p197
sasa(dp198
g142
S'Tkinter'
p199
sg50
S'_COM_port_connect'
p200
sg144
S'Button'
p201
sg146
(lp202
sg24
Nsg149
(lp203
I1850
aI726
asg151
(lp204
sg153
(lp205
(dp206
g50
S'text'
p207
sg162
V\u041e\u0442\u043a\u0440\u044b\u0442\u044c COM-\u043f\u043e\u0440\u0442
p208
sg169
Nsa(dp209
g50
S'command'
p210
sg162
S'_on__COM_port_connect_command'
p211
sg169
I1
sasa(dp212
g142
S'Tkinter'
p213
sg50
S'_ComPortsList'
p214
sg144
S'Listbox'
p215
sg146
(lp216
sg24
Nsg149
(lp217
I1850
aI387
asg151
(lp218
sg153
(lp219
(dp220
g50
S'selectmode'
p221
sg162
S'single'
p222
sg169
Nsasa(dp223
g142
S'Tkinter'
p224
sg50
S'_Frame1'
p225
sg144
S'Frame'
p226
sg146
(lp227
sg24
(I0
I0
I7
tp228
sg149
g150
sg151
(lp229
sg153
(lp230
sa(dp231
g142
g224
sg50
S'_Frame10'
p232
sg144
g226
sg146
(lp233
sg24
(I0
I0
I8
tp234
sg149
g150
sg151
(lp235
sg153
(lp236
sa(dp237
g142
S'Tkinter'
p238
sg50
S'_Frame11'
p239
sg144
S'Frame'
p240
sg146
(lp241
(dp242
g50
S'fill'
p243
sg162
S'x'
sasg24
(I0
I0
I4
tp244
sg149
g150
sg151
(lp245
sg153
(lp246
sa(dp247
g142
S'Tkinter'
p248
sg50
S'_Frame12'
p249
sg144
S'Frame'
p250
sg146
(lp251
(dp252
g50
g243
sg162
S'x'
sasg24
(I0
I0
I5
tp253
sg149
g150
sg151
(lp254
sg153
(lp255
sa(dp256
g142
g224
sg50
S'_Frame13'
p257
sg144
g226
sg146
(lp258
sg24
(I0
I0
I8
I1
tp259
sg149
g150
sg151
(lp260
sg153
(lp261
sa(dp262
g142
S'Tkinter'
p263
sg50
S'_Frame14'
p264
sg144
S'Frame'
p265
sg146
(lp266
sg24
(I0
I1
I2
tp267
sg149
g150
sg151
(lp268
sg153
(lp269
sa(dp270
g142
g263
sg50
S'_Frame15'
p271
sg144
g265
sg146
(lp272
(dp273
g50
g243
sg162
S'x'
sasg24
(I0
I1
I5
tp274
sg149
g150
sg151
(lp275
sg153
(lp276
sa(dp277
g142
S'Tkinter'
p278
sg50
S'_Frame16'
p279
sg144
S'Frame'
p280
sg146
(lp281
(dp282
g50
g243
sg162
S'x'
sasg24
(I0
I1
I7
tp283
sg149
g150
sg151
(lp284
sg153
(lp285
sa(dp286
g142
g278
sg50
S'_Frame17'
p287
sg144
g280
sg146
(lp288
(dp289
g50
g243
sg162
S'x'
sasg24
(I0
I1
I8
tp290
sg149
g150
sg151
(lp291
sg153
(lp292
sa(dp293
g142
g278
sg50
S'_Frame18'
p294
sg144
g280
sg146
(lp295
(dp296
g50
g243
sg162
S'x'
sasg24
(I0
I1
I6
tp297
sg149
g150
sg151
(lp298
sg153
(lp299
sa(dp300
g142
S'Tkinter'
p301
sg50
S'_Frame19'
p302
sg144
S'Frame'
p303
sg146
(lp304
sg24
(I0
I1
I1
tp305
sg149
g150
sg151
(lp306
sg153
(lp307
sa(dp308
g142
S'Tkinter'
p309
sg50
S'_Frame2'
p310
sg144
S'Frame'
p311
sg146
(lp312
(dp313
g50
g243
sg162
S'y'
sasg24
(I0
I0
tp314
sg149
g150
sg151
(lp315
sg153
(lp316
sa(dp317
g142
g278
sg50
S'_Frame20'
p318
sg144
g280
sg146
(lp319
(dp320
g50
g243
sg162
S'x'
sasg24
(I0
I1
I9
tp321
sg149
g150
sg151
(lp322
sg153
(lp323
sa(dp324
g142
S'Tkinter'
p325
sg50
S'_Frame21'
p326
sg144
S'Frame'
p327
sg146
(lp328
(dp329
g50
g243
sg162
S'x'
sasg24
(I0
I1
I10
tp330
sg149
g150
sg151
(lp331
sg153
(lp332
sa(dp333
g142
S'Tkinter'
p334
sg50
S'_Frame22'
p335
sg144
S'Frame'
p336
sg146
(lp337
sg24
(I0
I0
I10
tp338
sg149
g150
sg151
(lp339
sg153
(lp340
sa(dp341
g142
g334
sg50
S'_Frame23'
p342
sg144
g336
sg146
(lp343
sg24
(I0
I0
I9
tp344
sg149
g150
sg151
(lp345
sg153
(lp346
(dp347
g50
S'borderwidth'
p348
sg162
S'n:10'
p349
sg169
Nsa(dp350
g50
S'background'
p351
sg162
S'c:#c0c0c0'
p352
sg169
Nsasa(dp353
g142
g334
sg50
S'_Frame24'
p354
sg144
g336
sg146
(lp355
sg24
(I0
I0
I9
I1
tp356
sg149
g150
sg151
(lp357
sg153
(lp358
sa(dp359
g142
g334
sg50
S'_Frame25'
p360
sg144
g336
sg146
(lp361
sg24
(I0
I0
I9
I0
tp362
sg149
g150
sg151
(lp363
sg153
(lp364
sa(dp365
g142
g248
sg50
S'_Frame26'
p366
sg144
g250
sg146
(lp367
(dp368
g50
g243
sg162
S'x'
sasg24
(I0
I0
I1
tp369
sg149
g150
sg151
(lp370
sg153
(lp371
sa(dp372
g142
g248
sg50
S'_Frame27'
p373
sg144
g250
sg146
(lp374
sg24
(I0
I0
I0
tp375
sg149
g150
sg151
(lp376
sg153
(lp377
sa(dp378
g142
S'Tkinter'
p379
sg50
S'_Frame28'
p380
sg144
S'Frame'
p381
sg146
(lp382
(dp383
g50
g243
sg162
S'x'
sasg24
(I0
I1
I4
tp384
sg149
g150
sg151
(lp385
sg153
(lp386
sa(dp387
g142
g301
sg50
S'_Frame29'
p388
sg144
g303
sg146
(lp389
sg24
(I0
I1
I0
tp390
sg149
g150
sg151
(lp391
sg153
(lp392
sa(dp393
g142
S'Tkinter'
p394
sg50
S'_Frame3'
p395
sg144
S'Frame'
p396
sg146
(lp397
sg24
(I0
I2
tp398
sg149
g150
sg151
(lp399
sg153
(lp400
sa(dp401
g142
g301
sg50
S'_Frame30'
p402
sg144
g303
sg146
(lp403
(dp404
g50
S'expand'
p405
sg162
S'yes'
p406
sa(dp407
g50
g243
sg162
S'x'
sasg24
(I0
I1
I1
I1
tp408
sg149
g150
sg151
(lp409
sg153
(lp410
sa(dp411
g142
g301
sg50
S'_Frame31'
p412
sg144
g303
sg146
(lp413
(dp414
g50
g405
sg162
g406
sa(dp415
g50
g243
sg162
S'x'
sasg24
(I0
I1
I1
I0
tp416
sg149
g150
sg151
(lp417
sg153
(lp418
sa(dp419
g142
S'Tkinter'
p420
sg50
S'_Frame32'
p421
sg144
S'Frame'
p422
sg146
(lp423
(dp424
g50
g243
sg162
S'x'
sasg24
(I0
I0
I3
tp425
sg149
g150
sg151
(lp426
sg153
(lp427
sa(dp428
g142
g394
sg50
S'_Frame4'
p429
sg144
g396
sg146
(lp430
(dp431
g50
g243
sg162
S'y'
sasg24
(I0
I1
tp432
sg149
g150
sg151
(lp433
sg153
(lp434
(dp435
g50
g351
sg162
S'c:#dbdbdb'
p436
sg169
Nsasa(dp437
g142
g224
sg50
S'_Frame5'
p438
sg144
g226
sg146
(lp439
sg24
(I0
I0
I8
I0
tp440
sg149
g150
sg151
(lp441
sg153
(lp442
sa(dp443
g142
g224
sg50
S'_Frame6'
p444
sg144
g226
sg146
(lp445
sg24
(I0
I0
I6
tp446
sg149
g150
sg151
(lp447
sg153
(lp448
sa(dp449
g142
g238
sg50
S'_Frame7'
p450
sg144
g240
sg146
(lp451
(dp452
g50
g243
sg162
S'x'
sasg24
(I0
I0
I2
tp453
sg149
g150
sg151
(lp454
sg153
(lp455
sa(dp456
g142
S'Tkinter'
p457
sg50
S'_Frame8'
p458
sg144
S'Frame'
p459
sg146
(lp460
sg24
(I0
I0
I8
I2
tp461
sg149
g150
sg151
(lp462
sg153
(lp463
sa(dp464
g142
g263
sg50
S'_Frame9'
p465
sg144
g265
sg146
(lp466
(dp467
g50
g243
sg162
S'x'
sasg24
(I0
I1
I3
tp468
sg149
g150
sg151
(lp469
sg153
(lp470
sa(dp471
g142
S'Tkinter'
p472
sg50
S'_GasThreshold'
p473
sg144
S'Button'
p474
sg146
(lp475
sg24
Nsg149
(lp476
I1862
aI4353
asg151
(lp477
sg153
(lp478
(dp479
g50
g207
sg162
S'Write Gas Threshold'
p480
sg169
Nsa(dp481
g50
S'state'
p482
sg162
S'disabled'
p483
sg169
Nsa(dp484
g50
g210
sg162
S'_on__GasThreshold_command'
p485
sg169
I1
sasa(dp486
g142
g156
sg50
S'_LSE4'
p487
sg144
g158
sg146
(lp488
(dp489
g50
g161
sg162
S'w'
sasg24
Nsg149
(lp490
I1808
aI2793
asg151
(lp491
sg153
(lp492
(dp493
g50
g167
sg162
V\u0421\u0447\u0438\u0442\u044b\u0432\u0430\u0442\u0435\u043b\u044c \u041b\u0421-\u04154
p494
sg169
Nsa(dp495
g50
g171
sg162
S'device'
p496
sg169
S'is.as'
p497
sa(dp498
g50
g175
sg162
S'lse4'
p499
sg169
Nsa(dp500
g50
g178
sg162
g179
sg169
I1
sa(dp501
g50
g181
sg162
g182
sg169
Nsasa(dp502
g142
g156
sg50
S'_LSR4'
p503
sg144
g158
sg146
(lp504
(dp505
g50
g161
sg162
S'w'
sasg24
Nsg149
(lp506
I1820
aI2539
asg151
(lp507
sg153
(lp508
(dp509
g50
g167
sg162
V\u0421\u0447\u0438\u0442\u044b\u0432\u0430\u0442\u0435\u043b\u044c \u041b\u0421-\u04204
p510
sg169
Nsa(dp511
g50
g171
sg162
S'device'
p512
sg169
S'is.as'
p513
sa(dp514
g50
g175
sg162
S'lsr4'
p515
sg169
Nsa(dp516
g50
g178
sg162
g179
sg169
I1
sa(dp517
g50
g181
sg162
g182
sg169
Nsasa(dp518
g142
g199
sg50
S'_Label1'
p519
sg144
S'Label'
p520
sg146
(lp521
sg24
Nsg149
(lp522
I1862
aI85
asg151
(lp523
sg153
(lp524
(dp525
g50
S'text'
p526
sg162
V\u0412\u044b\u0431\u0435\u0440\u0435\u0442\u0435 COM-\u043f\u043e\u0440\u0442
p527
sg169
Nsasa(dp528
g142
S'Tkinter'
p529
sg50
S'_Label10'
p530
sg144
S'Label'
p531
sg146
(lp532
sg24
Nsg149
(lp533
I1357
aI7521
asg151
(lp534
sg153
(lp535
(dp536
g50
g526
sg162
S'at frequency trim:'
p537
sg169
Nsasa(dp538
g142
S'Tkinter'
p539
sg50
S'_Label11'
p540
sg144
S'Label'
p541
sg146
(lp542
sg24
Nsg149
(lp543
I3500
aI8767
asg151
(lp544
sg153
(lp545
(dp546
g50
g526
sg162
V\u041b\u0421-\u04204:
p547
sg169
Nsasa(dp548
g142
g539
sg50
S'_Label12'
p549
sg144
g541
sg146
(lp550
sg24
Nsg149
(lp551
I4674
aI8815
asg151
(lp552
sg153
(lp553
(dp554
g50
g526
sg162
V\u041c\u0410:
p555
sg169
Nsasa(dp556
g142
S'Tkinter'
p557
sg50
S'_Label13'
p558
sg144
S'Label'
p559
sg146
(lp560
sg24
Nsg149
(lp561
I3360
aI9154
asg151
(lp562
sg153
(lp563
(dp564
g50
g526
sg162
V\u0414\u043b\u044f \u043a\u0430\u0441\u0441\u0435\u0442\u044b 1-\u041c-5:
p565
sg169
Nsasa(dp566
g142
S'Tkinter'
p567
sg50
S'_Label2'
p568
sg144
S'Label'
p569
sg146
(lp570
sg24
Nsg149
(lp571
I1881
aI3422
asg151
(lp572
sg153
(lp573
(dp574
g50
g526
sg162
V\u0421\u0435\u0440\u0438\u0439\u043d\u044b\u0439 \u043d\u043e\u043c\u0435\u0440:
p575
sg169
Nsasa(dp576
g142
S'Tkinter'
p577
sg50
S'_Label3'
p578
sg144
S'Label'
p579
sg146
(lp580
(dp581
g50
g161
sg162
S'w'
sasg24
Nsg149
(lp582
I341
aI1052
asg151
(lp583
sg153
(lp584
(dp585
g50
g526
sg162
V\u0412\u044b\u0431\u0435\u0440\u0435\u0442\u0435 \u0443\u0441\u0442\u0440\u043e\u0439\u0441\u0442\u0432\u043e:
p586
sg169
Nsa(dp587
g50
S'justify'
p588
sg162
g182
sg169
Nsasa(dp589
g142
g577
sg50
S'_Label4'
p590
sg144
g579
sg146
(lp591
sg24
Nsg149
(lp592
I4680
aI1330
asg151
(lp593
sg153
(lp594
(dp595
g50
g526
sg162
V\u0412\u0432\u0435\u0434\u0438\u0442\u0435 \u043a\u043e\u043c\u0430\u043d\u0434\u0443 \u0434\u043b\u044f \u043e\u0442\u043f\u0440\u0430\u0432\u043a\u0438:
p596
sg169
Nsasa(dp597
g142
g577
sg50
S'_Label5'
p598
sg144
g579
sg146
(lp599
sg24
Nsg149
(lp600
I1869
aI5163
asg151
(lp601
sg153
(lp602
(dp603
g50
g526
sg162
S'phy ipaddr:'
p604
sg169
Nsasa(dp605
g142
g577
sg50
S'_Label6'
p606
sg144
g579
sg146
(lp607
sg24
Nsg149
(lp608
I1862
aI5683
asg151
(lp609
sg153
(lp610
(dp611
g50
g526
sg162
S'eth ipaddr:'
p612
sg169
Nsasa(dp613
g142
g577
sg50
S'_Label7'
p614
sg144
g579
sg146
(lp615
sg24
Nsg149
(lp616
I1856
aI6227
asg151
(lp617
sg153
(lp618
(dp619
g50
g526
sg162
S'phy macaddr:'
p620
sg169
Nsasa(dp621
g142
g577
sg50
S'_Label8'
p622
sg144
g579
sg146
(lp623
sg24
Nsg149
(lp624
I1850
aI6832
asg151
(lp625
sg153
(lp626
(dp627
g50
g526
sg162
S'eth macaddr:'
p628
sg169
Nsasa(dp629
g142
S'Tkinter'
p630
sg50
S'_Label9'
p631
sg144
S'Label'
p632
sg146
(lp633
sg24
Nsg149
(lp634
I1875
aI4619
asg151
(lp635
sg153
(lp636
(dp637
g50
g526
sg162
S'at addr'
p638
sg169
Nsasa(dp639
g142
g156
sg50
S'_MA41'
p640
sg144
g158
sg146
(lp641
(dp642
g50
g161
sg162
S'w'
sasg24
Nsg149
(lp643
I347
aI1366
asg151
(lp644
sg153
(lp645
(dp646
g50
g167
sg162
V\u041c\u043e\u0434\u0443\u043b\u044c \u041c\u0410-41
p647
sg169
Nsa(dp648
g50
g171
sg162
S'device'
p649
sg169
S'is.as'
p650
sa(dp651
g50
g175
sg162
S'ma41'
p652
sg169
Nsa(dp653
g50
g178
sg162
g179
sg169
I1
sa(dp654
g50
g181
sg162
g182
sg169
Nsasa(dp655
g142
g156
sg50
g52
sg144
g158
sg146
(lp656
sg24
Nsg149
(lp657
I359
aI1705
asg151
(lp658
sg153
(lp659
(dp660
g50
g167
sg162
V\u041c\u043e\u0434\u0443\u043b\u044c \u041c\u0410-45
p661
sg169
Nsa(dp662
g50
g171
sg162
S'device'
p663
sg169
S'is.as'
p664
sa(dp665
g50
g175
sg162
S'ma45'
p666
sg169
Nsa(dp667
g50
g178
sg162
g179
sg169
I1
sa(dp668
g50
g181
sg162
S'left'
p669
sg169
Nsasa(dp670
g142
S'Tkinter'
p671
sg50
S'_MA48'
p672
sg144
S'Radiobutton'
p673
sg146
(lp674
sg24
Nsg149
(lp675
I323
aI2140
asg151
(lp676
sg153
(lp677
(dp678
g50
g167
sg162
V\u041c\u043e\u0434\u0443\u043b\u044c \u041c\u0410-48
p679
sg169
Nsa(dp680
g50
g171
sg162
S'device'
p681
sg169
S'is.as'
p682
sa(dp683
g50
g175
sg162
S'ma48'
p684
sg169
Nsa(dp685
g50
g178
sg162
S'_set_serial'
p686
sg169
I1
sa(dp687
g50
g181
sg162
g669
sg169
Nsasa(dp688
g142
g199
sg50
S'_ReceivedText'
p689
sg144
S'Text'
p690
sg146
(lp691
sg24
Nsg149
(lp692
I5161
aI5018
asg151
(lp693
sg153
(lp694
(dp695
g50
S'height'
p696
sg162
S'n:35'
p697
sg169
Nsa(dp698
g50
S'font'
p699
sg162
(S'@Arial Unicode MS'
I10
S''
tp700
sg169
Nsasa(dp701
g142
g630
sg50
S'_ataddr'
p702
sg144
S'Entry'
p703
sg146
(lp704
sg24
Nsg149
(lp705
I1869
aI4885
asg151
(lp706
sg153
(lp707
(dp708
g50
S'state'
p709
sg162
S'disabled'
p710
sg169
Nsa(dp711
g50
S'textvariable'
p712
sg162
S'ataddr'
p713
sg169
S's.as'
p714
sasa(dp715
g142
S'Tkinter'
p716
sg50
S'_btn_adf_tst'
p717
sg144
S'Button'
p718
sg146
(lp719
(dp720
g50
g161
sg162
S'w'
sasg24
Nsg149
(lp721
I3737
aI7074
asg151
(lp722
sg153
(lp723
(dp724
g50
g207
sg162
S'adf tst'
p725
sg169
Nsa(dp726
g50
g482
sg162
S'disabled'
p727
sg169
Nsa(dp728
g50
g210
sg162
S'_on__btn_adf_tst_command'
p729
sg169
I1
sasa(dp730
g142
g716
sg50
S'_btn_adf_tst_50'
p731
sg144
g718
sg146
(lp732
(dp733
g50
g161
sg162
S'w'
sasg24
Nsg149
(lp734
I4017
aI7098
asg151
(lp735
sg153
(lp736
(dp737
g50
g207
sg162
S'adf tst 50'
p738
sg169
Nsa(dp739
g50
g482
sg162
g727
sg169
Nsa(dp740
g50
g210
sg162
S'_on__btn_adf_tst_50_command'
p741
sg169
I1
sasa(dp742
g142
g716
sg50
S'_btn_at_dst_rt'
p743
sg144
g718
sg146
(lp744
(dp745
g50
g161
sg162
S'w'
sasg24
Nsg149
(lp746
I3506
aI8319
asg151
(lp747
sg153
(lp748
(dp749
g50
g207
sg162
S'at dst 0xXXXX + rt'
p750
sg169
Nsa(dp751
g50
g482
sg162
g727
sg169
Nsa(dp752
g50
g210
sg162
S'_on__btn_at_dst_rt_command'
p753
sg169
I1
sasa(dp754
g142
g539
sg50
S'_btn_ataddr'
p755
sg144
S'Button'
p756
sg146
(lp757
sg24
Nsg149
(lp758
I4297
aI6687
asg151
(lp759
sg153
(lp760
(dp761
g50
g207
sg162
S'at addr'
p762
sg169
Nsa(dp763
g50
g482
sg162
S'disabled'
p764
sg169
Nsa(dp765
g50
g210
sg162
S'_on__btn_ataddr_command'
p766
sg169
I1
sasa(dp767
g142
g716
sg50
S'_btn_dbg0'
p768
sg144
g718
sg146
(lp769
(dp770
g50
g161
sg162
S'w'
sasg24
Nsg149
(lp771
I3950
aI5707
asg151
(lp772
sg153
(lp773
(dp774
g50
g207
sg162
S'dbg 0'
p775
sg169
Nsa(dp776
g50
g482
sg162
g727
sg169
Nsa(dp777
g50
g210
sg162
S'_on__btn_dbg0_command'
p778
sg169
I1
sasa(dp779
g142
g716
sg50
S'_btn_dbg1'
p780
sg144
g718
sg146
(lp781
(dp782
g50
g161
sg162
S'w'
sasg24
Nsg149
(lp783
I4382
aI5707
asg151
(lp784
sg153
(lp785
(dp786
g50
g207
sg162
S'dbg 1'
p787
sg169
Nsa(dp788
g50
g482
sg162
g727
sg169
Nsa(dp789
g50
g210
sg162
S'_on__btn_dbg1_command'
p790
sg169
I1
sasa(dp791
g142
g557
sg50
S'_btn_dev_mac'
p792
sg144
S'Button'
p793
sg146
(lp794
sg24
Nsg149
(lp795
I4066
aI9528
asg151
(lp796
sg153
(lp797
(dp798
g50
g207
sg162
S'dev mac'
p799
sg169
Nsa(dp800
g50
g482
sg162
S'disabled'
p801
sg169
Nsa(dp802
g50
g210
sg162
S'_on__btn_dev_mac_command'
p803
sg169
I1
sasa(dp804
g142
g557
sg50
S'_btn_dev_req'
p805
sg144
g793
sg146
(lp806
sg24
Nsg149
(lp807
I4674
aI9504
asg151
(lp808
sg153
(lp809
(dp810
g50
g207
sg162
S'dev req'
p811
sg169
Nsa(dp812
g50
g482
sg162
g801
sg169
Nsa(dp813
g50
g210
sg162
S'_on__btn_dev_req_command'
p814
sg169
I1
sasa(dp815
g142
g557
sg50
S'_btn_enter'
p816
sg144
g793
sg146
(lp817
sg24
Nsg149
(lp818
I3822
aI9565
asg151
(lp819
sg153
(lp820
(dp821
g50
g207
sg162
S'Enter key'
p822
sg169
Nsa(dp823
g50
g482
sg162
g801
sg169
Nsa(dp824
g50
g210
sg162
S'_on__btn_enter_command'
p825
sg169
I1
sasa(dp826
g142
g716
sg50
S'_btn_exe_at_dst_rt'
p827
sg144
g718
sg146
(lp828
sg24
Nsg149
(lp829
I4358
aI8815
asg151
(lp830
sg153
(lp831
(dp832
g50
g207
sg162
S'exe 0xXXXX at dst 0xXXXX + rt'
p833
sg169
Nsa(dp834
g50
g482
sg162
g727
sg169
Nsa(dp835
g50
g210
sg162
S'_on__btn_exe_at_dst_rt_command'
p836
sg169
I1
sasa(dp837
g142
S'Tkinter'
p838
sg50
S'_btn_lamp_wdg_0'
p839
sg144
S'Button'
p840
sg146
(lp841
sg24
Nsg149
(lp842
I402
aI9577
asg151
(lp843
sg153
(lp844
(dp845
g50
g207
sg162
S'lamp wdg 0'
p846
sg169
Nsa(dp847
g50
g482
sg162
S'disabled'
p848
sg169
Nsa(dp849
g50
g210
sg162
S'_on__btn_adf_wdg_0_command'
p850
sg169
I1
sasa(dp851
g142
S'Tkinter'
p852
sg50
S'_btn_phyipaddr'
p853
sg144
S'Button'
p854
sg146
(lp855
(dp856
g50
g161
sg162
S'w'
sasg24
Nsg149
(lp857
I3974
aI6699
asg151
(lp858
sg153
(lp859
(dp860
g50
g207
sg162
S'phy ipaddr'
p861
sg169
Nsa(dp862
g50
g482
sg162
S'disabled'
p863
sg169
Nsa(dp864
g50
g210
sg162
S'_on__btn_phyipaddr_command'
p865
sg169
I1
sasa(dp866
g142
g852
sg50
S'_btn_ping'
p867
sg144
g854
sg146
(lp868
sg24
Nsg149
(lp869
I3956
aI6227
asg151
(lp870
sg153
(lp871
(dp872
g50
g207
sg162
S'ping'
p873
sg169
Nsa(dp874
g50
g482
sg162
g863
sg169
Nsa(dp875
g50
g210
sg162
S'_on__btn_ping_command'
p876
sg169
I1
sasa(dp877
g142
g557
sg50
S'_btn_root'
p878
sg144
g793
sg146
(lp879
(dp880
g50
g161
sg162
S'w'
sasg24
Nsg149
(lp881
I3256
aI9553
asg151
(lp882
sg153
(lp883
(dp884
g50
g207
sg162
S'root'
p885
sg169
Nsa(dp886
g50
g482
sg162
g801
sg169
Nsa(dp887
g50
g210
sg162
S'_on__btn_root_command'
p888
sg169
I1
sasa(dp889
g142
g557
sg50
S'_btn_talnakh'
p890
sg144
g793
sg146
(lp891
sg24
Nsg149
(lp892
I3524
aI9565
asg151
(lp893
sg153
(lp894
(dp895
g50
g207
sg162
S'talnakh'
p896
sg169
Nsa(dp897
g50
g482
sg162
g801
sg169
Nsa(dp898
g50
g210
sg162
S'_on__btn_tanakh_command'
p899
sg169
I1
sasa(dp900
g142
g716
sg50
S'_entry_at_addr'
p901
sg144
S'Entry'
p902
sg146
(lp903
sg24
Nsg149
(lp904
I4090
aI8259
asg151
(lp905
sg153
(lp906
(dp907
g50
g712
sg162
S'entry_at_addr'
p908
sg169
S's.as'
p909
sasa(dp910
g142
g716
sg50
S'_entry_at_addr_exe'
p911
sg144
g902
sg146
(lp912
sg24
Nsg149
(lp913
I3834
aI8779
asg151
(lp914
sg153
(lp915
(dp916
g50
g712
sg162
S'entry_at_addr_exe'
p917
sg169
S's.as'
p918
sasa(dp919
g142
g716
sg50
S'_entry_at_addr_rt'
p920
sg144
g902
sg146
(lp921
sg24
Nsg149
(lp922
I4960
aI8815
asg151
(lp923
sg153
(lp924
(dp925
g50
g712
sg162
S'entry_at_addr_rt'
p926
sg169
S's.as'
p927
sasa(dp928
g142
g557
sg50
S'_entry_dev_mac'
p929
sg144
S'Entry'
p930
sg146
(lp931
sg24
Nsg149
(lp932
I4364
aI9541
asg151
(lp933
sg153
(lp934
(dp935
g50
g712
sg162
S'dev_mac'
p936
sg169
S's.as'
p937
sasa(dp938
g142
g577
sg50
S'_ethipaddr'
p939
sg144
S'Entry'
p940
sg146
(lp941
sg24
Nsg149
(lp942
I1856
aI5985
asg151
(lp943
sg153
(lp944
(dp945
g50
g709
sg162
g710
sg169
Nsa(dp946
g50
g712
sg162
S'ethipaddr'
p947
sg169
S's.as'
p948
sasa(dp949
g142
g577
sg50
S'_ethmacaddr'
p950
sg144
g940
sg146
(lp951
sg24
Nsg149
(lp952
I1844
aI7062
asg151
(lp953
sg153
(lp954
(dp955
g50
g709
sg162
g710
sg169
Nsa(dp956
g50
g712
sg162
S'ethmacaddr'
p957
sg169
S's.as'
p958
sasa(dp959
g142
S'Tkinter'
p960
sg50
S'_ifbw0'
p961
sg144
S'Radiobutton'
p962
sg146
(lp963
sg24
Nsg149
(lp964
I1296
aI8670
asg151
(lp965
sg153
(lp966
(dp967
g50
g167
sg162
Vifbw 0 (\u0434\u043b\u044f ADF7021)
p968
sg169
Nsa(dp969
g50
g171
sg162
S'ifbw'
p970
sg169
S'is.ai'
p971
sa(dp972
g50
g175
sg162
S'0'
sg169
Nsasa(dp973
g142
g960
sg50
S'_ifbw1'
p974
sg144
g962
sg146
(lp975
sg24
Nsg149
(lp976
I1272
aI8984
asg151
(lp977
sg153
(lp978
(dp979
g50
g167
sg162
Vifbw 1 (\u0434\u043b\u044f ADF7021-N)
p980
sg169
Nsa(dp981
g50
g171
sg162
S'ifbw'
p982
sg169
S'is.ai'
p983
sa(dp984
g50
g175
sg162
S'1'
sg169
Nsasa(dp985
g142
g852
sg50
S'_ipaddr'
p986
sg144
S'Entry'
p987
sg146
(lp988
sg24
Nsg149
(lp989
I4315
aI6227
asg151
(lp990
sg153
(lp991
(dp992
g50
g712
sg162
S'entry_ipaddr'
p993
sg169
S's.as'
p994
sasa(dp995
g142
g199
sg50
S'_label_Rcvd_Text'
p996
sg144
g520
sg146
(lp997
sg24
Nsg149
(lp998
I5192
aI4450
asg151
(lp999
sg153
(lp1000
(dp1001
g50
g526
sg162
V\u041f\u0440\u0438\u043d\u044f\u0442\u043e \u043e\u0442 \u0443\u0441\u0442\u0440\u043e\u0439\u0441\u0442\u0432\u0430:
p1002
sg169
Nsasa(dp1003
g142
g529
sg50
S'_left'
p1004
sg144
S'Button'
p1005
sg146
(lp1006
sg24
Nsg149
(lp1007
I268
aI8174
asg151
(lp1008
sg153
(lp1009
(dp1010
g50
g207
sg162
S'<-------(left key)--at trim left'
p1011
sg169
Nsa(dp1012
g50
g482
sg162
S'disabled'
p1013
sg169
Nsa(dp1014
g50
g210
sg162
S'_on__left_command'
p1015
sg169
I1
sasa(dp1016
g142
S'Tkinter'
p1017
sg50
S'_ma45_treshold_patch'
p1018
sg144
S'Checkbutton'
p1019
sg146
(lp1020
sg24
Nsg149
(lp1021
I688
aI1705
asg151
(lp1022
sg153
(lp1023
(dp1024
g50
g192
sg162
S'MA-45 patch (recomended)'
p1025
sg169
Nsa(dp1026
g50
S'state'
p1027
sg162
S'disabled'
p1028
sg169
Nsa(dp1029
g50
g195
sg162
S'ma45_treshold_patch'
p1030
sg169
S'sif.ai'
p1031
sa(dp1032
g50
S'justify'
p1033
sg162
g669
sg169
Nsasa(dp1034
g142
g577
sg50
S'_phyipaddr'
p1035
sg144
g940
sg146
(lp1036
sg24
Nsg149
(lp1037
I1856
aI5405
asg151
(lp1038
sg153
(lp1039
(dp1040
g50
g709
sg162
g710
sg169
Nsa(dp1041
g50
g712
sg162
S'phyipaddr'
p1042
sg169
S's.as'
p1043
sasa(dp1044
g142
g577
sg50
S'_phymacaddr'
p1045
sg144
g940
sg146
(lp1046
sg24
Nsg149
(lp1047
I1856
aI6518
asg151
(lp1048
sg153
(lp1049
(dp1050
g50
g709
sg162
g710
sg169
Nsa(dp1051
g50
g712
sg162
S'phymacaddr'
p1052
sg169
S's.as'
p1053
sasa(dp1054
g142
g199
sg50
S'_prog_and_increment'
p1055
sg144
g201
sg146
(lp1056
sg24
Nsg149
(lp1057
I1862
aI4027
asg151
(lp1058
sg153
(lp1059
(dp1060
g50
g207
sg162
S'Write to EEPROM ataddr, ipaddr, macaddr, ifbw, wdg and increment serial number (up key)'
p1061
sg169
Nsa(dp1062
g50
g482
sg162
S'disabled'
p1063
sg169
Nsa(dp1064
g50
g210
sg162
S'_on__prog_and_increment_command'
p1065
sg169
I1
sasa(dp1066
g142
g529
sg50
S'_right'
p1067
sg144
g1005
sg146
(lp1068
sg24
Nsg149
(lp1069
I785
aI8186
asg151
(lp1070
sg153
(lp1071
(dp1072
g50
g207
sg162
S'at trim right--(right key)------->'
p1073
sg169
Nsa(dp1074
g50
g482
sg162
g1013
sg169
Nsa(dp1075
g50
g210
sg162
S'_on__right_command'
p1076
sg169
I1
sasa(dp1077
g142
g199
sg50
S'_send'
p1078
sg144
g201
sg146
(lp1079
(dp1080
g50
g243
sg162
S'x'
sasg24
Nsg149
(lp1081
I3987
aI2938
asg151
(lp1082
sg153
(lp1083
(dp1084
g50
g207
sg162
V\u041e\u0442\u043f\u0440\u0430\u0432\u0438\u0442\u044c \u043d\u0430 \u0443\u0441\u0442\u0440\u043e\u0439\u0441\u0442\u0432\u043e \u043a\u043e\u043c\u0430\u043d\u0434\u0443
p1085
sg169
Nsa(dp1086
g50
g482
sg162
S'disabled'
p1087
sg169
Nsa(dp1088
g50
g210
sg162
S'_on__send_command'
p1089
sg169
I1
sasa(dp1090
g142
S'Tkinter'
p1091
sg50
S'_send2'
p1092
sg144
S'Button'
p1093
sg146
(lp1094
sg24
Nsg149
(lp1095
I4705
aI2963
asg151
(lp1096
sg153
(lp1097
(dp1098
g50
g207
sg162
V\u041e\u0442\u043f\u0440\u0430\u0432\u0438\u0442\u044c \u043d\u0430 \u0443\u0441\u0442\u0440\u043e\u0439\u0441\u0442\u0432\u043e \u043a\u043e\u043c\u0430\u043d\u0434\u0443
p1099
sg169
Nsa(dp1100
g50
g482
sg162
S'disabled'
p1101
sg169
Nsa(dp1102
g50
g210
sg162
S'_on__send2_command'
p1103
sg169
I1
sasa(dp1104
g142
g199
sg50
S'_serialnumber'
p1105
sg144
S'Entry'
p1106
sg146
(lp1107
sg24
Nsg149
(lp1108
I1875
aI3688
asg151
(lp1109
sg153
(lp1110
(dp1111
g50
g712
sg162
S'serial_number'
p1112
sg169
S's.as'
p1113
sasa(dp1114
g142
S'Tkinter'
p1115
sg50
S'_set_ifbw'
p1116
sg144
S'Button'
p1117
sg146
(lp1118
sg24
Nsg149
(lp1119
I1795
aI8984
asg151
(lp1120
sg153
(lp1121
(dp1122
g50
g207
sg162
S'Set IFBW'
p1123
sg169
Nsa(dp1124
g50
g482
sg162
g710
sg169
Nsa(dp1125
g50
g210
sg162
S'_on__set_ifbw_command'
p1126
sg169
I1
sasa(dp1127
g142
g199
sg50
S'_text_to_send'
p1128
sg144
g1106
sg146
(lp1129
sg24
Nsg149
(lp1130
I3987
aI2189
asg151
(lp1131
sg153
(lp1132
(dp1133
g50
g712
sg162
S'text_to_send'
p1134
sg169
S's.as'
p1135
sasa(dp1136
g142
g1091
sg50
S'_text_to_send2'
p1137
sg144
S'Entry'
p1138
sg146
(lp1139
sg24
Nsg149
(lp1140
I4680
aI2201
asg151
(lp1141
sg153
(lp1142
(dp1143
g50
g712
sg162
S'text_to_send2'
p1144
sg169
S's.as'
p1145
sasasS'BaseClass'
p1146
g54
sg34
I1
sasS'VisibleForm'
p1147
g51
sS'SelectedForm'
p1148
g51
sg50
g6
sa.